; Function Attrs: mustprogress nofree norecurse nosync nounwind willreturn memory(argmem: readwrite) uwtable
define noundef nonnull align 4 dereferenceable(64) ptr @_ZN32pxrInternal_v0_24__pxrReserved__10GfMatrix4f16SetTranslateOnlyERKNS_7GfVec3fE(ptr noundef nonnull returned writeonly align 4 dereferenceable(64) initializes((48, 64)) %0, ptr noundef nonnull readonly align 4 captures(none) dereferenceable(12) %1) local_unnamed_addr #2 align 2 {
  %3 = load float, ptr %1, align 4
  %4 = getelementptr inbounds nuw i8, ptr %0, i64 48
  store float %3, ptr %4, align 4
  %5 = getelementptr inbounds nuw i8, ptr %1, i64 4
  %6 = load float, ptr %5, align 4
  %7 = getelementptr inbounds nuw i8, ptr %0, i64 52
  store float %6, ptr %7, align 4
  %8 = getelementptr inbounds nuw i8, ptr %1, i64 8
  %9 = load float, ptr %8, align 4
  %10 = getelementptr inbounds nuw i8, ptr %0, i64 56
  store float %9, ptr %10, align 4
  %11 = getelementptr inbounds nuw i8, ptr %0, i64 60
  store float 1.000000e+00, ptr %11, align 4
  ret ptr %0
}